; ModuleID = 'appdata.cpp'
source_filename = "appdata.cpp"
target datalayout = "e-m:e-i64:64-f80:128-n8:16:32:64-S128"
target triple = "x86_64-unknown-linux-gnu"

@a = dso_local global i32 0, align 4

; Function Attrs: noinline nounwind optnone uwtable
define dso_local void @_Z3outv() #0 {
entry:
  ret void
}

; Function Attrs: noinline nounwind optnone uwtable
define dso_local void @_Z2inv() #0 {
entry:
  ret void
}

; Function Attrs: noinline nounwind optnone uwtable
define dso_local void @_Z6middlev() #0 {
entry:
  ret void
}

; Function Attrs: noinline nounwind optnone uwtable
define dso_local void @_Z13lib_functionsv() #0 {
entry:
  %0 = load i32, i32* @a, align 4
  %tobool = icmp ne i32 %0, 0
  br i1 %tobool, label %if.end, label %if.then

if.then:                                          ; preds = %entry
  call void @_Z3outv()
  br label %if.end

if.end:                                           ; preds = %if.then, %entry
  ret void
}

; Function Attrs: noinline nounwind optnone uwtable
define dso_local void @_Z16lib_constructorsv() #0 {
entry:
  %0 = load i32, i32* @a, align 4
  %tobool = icmp ne i32 %0, 0
  br i1 %tobool, label %if.end, label %if.then

if.then:                                          ; preds = %entry
  call void @_Z2inv()
  br label %if.end

if.end:                                           ; preds = %if.then, %entry
  ret void
}

; Function Attrs: noinline nounwind optnone uwtable
define dso_local void @_Z15lib_destructorsv() #0 {
entry:
  %0 = load i32, i32* @a, align 4
  %tobool = icmp ne i32 %0, 0
  br i1 %tobool, label %if.end, label %if.then

if.then:                                          ; preds = %entry
  call void @_Z6middlev()
  br label %if.end

if.end:                                           ; preds = %if.then, %entry
  ret void
}

; Function Attrs: noinline optnone uwtable
define dso_local i32 @_Z6answerv() #1 {
entry:
  %call = call i32 @_Z5callyv()
  %call1 = call i32 @_Z5calliv()
  %add = add nsw i32 %call, %call1
  ret i32 %add
}

declare dso_local i32 @_Z5callyv() #2

declare dso_local i32 @_Z5calliv() #2

attributes #0 = { noinline nounwind optnone uwtable "correctly-rounded-divide-sqrt-fp-math"="false" "disable-tail-calls"="false" "less-precise-fpmad"="false" "min-legal-vector-width"="0" "no-frame-pointer-elim"="true" "no-frame-pointer-elim-non-leaf" "no-infs-fp-math"="false" "no-jump-tables"="false" "no-nans-fp-math"="false" "no-signed-zeros-fp-math"="false" "no-trapping-math"="false" "stack-protector-buffer-size"="8" "target-cpu"="x86-64" "target-features"="+cx8,+fxsr,+mmx,+sse,+sse2,+x87" "unsafe-fp-math"="false" "use-soft-float"="false" }
attributes #1 = { noinline optnone uwtable "correctly-rounded-divide-sqrt-fp-math"="false" "disable-tail-calls"="false" "less-precise-fpmad"="false" "min-legal-vector-width"="0" "no-frame-pointer-elim"="true" "no-frame-pointer-elim-non-leaf" "no-infs-fp-math"="false" "no-jump-tables"="false" "no-nans-fp-math"="false" "no-signed-zeros-fp-math"="false" "no-trapping-math"="false" "stack-protector-buffer-size"="8" "target-cpu"="x86-64" "target-features"="+cx8,+fxsr,+mmx,+sse,+sse2,+x87" "unsafe-fp-math"="false" "use-soft-float"="false" }
attributes #2 = { "correctly-rounded-divide-sqrt-fp-math"="false" "disable-tail-calls"="false" "less-precise-fpmad"="false" "no-frame-pointer-elim"="true" "no-frame-pointer-elim-non-leaf" "no-infs-fp-math"="false" "no-nans-fp-math"="false" "no-signed-zeros-fp-math"="false" "no-trapping-math"="false" "stack-protector-buffer-size"="8" "target-cpu"="x86-64" "target-features"="+cx8,+fxsr,+mmx,+sse,+sse2,+x87" "unsafe-fp-math"="false" "use-soft-float"="false" }

!llvm.module.flags = !{!0}
!llvm.ident = !{!1}

!0 = !{i32 1, !"wchar_size", i32 4}
!1 = !{!"clang version 9.0.0 (https://github.com/llvm/llvm-project.git 8f518d52d6d52a8139c73080a11ad2f0a422b0f7)"}
